; Function Attrs: mustprogress nounwind uwtable
define hidden void @_ZN5ceres8internal19TripletSparseMatrixD0Ev(ptr noundef nonnull align 8 dereferenceable(48) %0) unnamed_addr #1 align 2 {
  %2 = getelementptr inbounds i8, ptr %0, i64 40
  %3 = load ptr, ptr %2, align 8
  %.not.i.i = icmp eq ptr %3, null
  br i1 %.not.i.i, label %_ZNSt10unique_ptrIA_dSt14default_deleteIS0_EED2Ev.exit.i, label %_ZNKSt14default_deleteIA_dEclIdEENSt9enable_ifIXsr14is_convertibleIPA_T_PS0_EE5valueEvE4typeEPS4_.exit.i.i

_ZNKSt14default_deleteIA_dEclIdEENSt9enable_ifIXsr14is_convertibleIPA_T_PS0_EE5valueEvE4typeEPS4_.exit.i.i: ; preds = %1
  tail call void @_ZdaPv(ptr noundef nonnull %3) #25
  br label %_ZNSt10unique_ptrIA_dSt14default_deleteIS0_EED2Ev.exit.i

_ZNSt10unique_ptrIA_dSt14default_deleteIS0_EED2Ev.exit.i: ; preds = %_ZNKSt14default_deleteIA_dEclIdEENSt9enable_ifIXsr14is_convertibleIPA_T_PS0_EE5valueEvE4typeEPS4_.exit.i.i, %1
  store ptr null, ptr %2, align 8
  %4 = getelementptr inbounds i8, ptr %0, i64 32
  %5 = load ptr, ptr %4, align 8
  %.not.i1.i = icmp eq ptr %5, null
  br i1 %.not.i1.i, label %_ZNSt10unique_ptrIA_iSt14default_deleteIS0_EED2Ev.exit.i, label %_ZNKSt14default_deleteIA_iEclIiEENSt9enable_ifIXsr14is_convertibleIPA_T_PS0_EE5valueEvE4typeEPS4_.exit.i.i

_ZNKSt14default_deleteIA_iEclIiEENSt9enable_ifIXsr14is_convertibleIPA_T_PS0_EE5valueEvE4typeEPS4_.exit.i.i: ; preds = %_ZNSt10unique_ptrIA_dSt14default_deleteIS0_EED2Ev.exit.i
  tail call void @_ZdaPv(ptr noundef nonnull %5) #25
  br label %_ZNSt10unique_ptrIA_iSt14default_deleteIS0_EED2Ev.exit.i

_ZNSt10unique_ptrIA_iSt14default_deleteIS0_EED2Ev.exit.i: ; preds = %_ZNKSt14default_deleteIA_iEclIiEENSt9enable_ifIXsr14is_convertibleIPA_T_PS0_EE5valueEvE4typeEPS4_.exit.i.i, %_ZNSt10unique_ptrIA_dSt14default_deleteIS0_EED2Ev.exit.i
  store ptr null, ptr %4, align 8
  %6 = getelementptr inbounds i8, ptr %0, i64 24
  %7 = load ptr, ptr %6, align 8
  %.not.i2.i = icmp eq ptr %7, null
  br i1 %.not.i2.i, label %_ZN5ceres8internal19TripletSparseMatrixD2Ev.exit, label %_ZNKSt14default_deleteIA_iEclIiEENSt9enable_ifIXsr14is_convertibleIPA_T_PS0_EE5valueEvE4typeEPS4_.exit.i3.i

_ZNKSt14default_deleteIA_iEclIiEENSt9enable_ifIXsr14is_convertibleIPA_T_PS0_EE5valueEvE4typeEPS4_.exit.i3.i: ; preds = %_ZNSt10unique_ptrIA_iSt14default_deleteIS0_EED2Ev.exit.i
  tail call void @_ZdaPv(ptr noundef nonnull %7) #25
  br label %_ZN5ceres8internal19TripletSparseMatrixD2Ev.exit

_ZN5ceres8internal19TripletSparseMatrixD2Ev.exit: ; preds = %_ZNSt10unique_ptrIA_iSt14default_deleteIS0_EED2Ev.exit.i, %_ZNKSt14default_deleteIA_iEclIiEENSt9enable_ifIXsr14is_convertibleIPA_T_PS0_EE5valueEvE4typeEPS4_.exit.i3.i
  store ptr null, ptr %6, align 8
  tail call void @_ZN5ceres8internal12SparseMatrixD2Ev(ptr noundef nonnull align 8 dereferenceable(8) %0) #26
  tail call void @_ZdlPv(ptr noundef nonnull %0) #25
  ret void
}